target datalayout = "e-m:e-p270:32:32-p271:32:32-p272:64:64-i64:64-i128:128-f80:128-n8:16:32:64-S128"
target triple = "x86_64-pc-linux-gnu"

%"class.icu_77::StringSearch" = type { %"class.icu_77::SearchIterator", %"class.icu_77::UnicodeString", ptr }
%"class.icu_77::SearchIterator" = type { %"class.icu_77::UObject", ptr, ptr, %"class.icu_77::UnicodeString" }
%"class.icu_77::UObject" = type { ptr }
%"class.icu_77::UnicodeString" = type { %"class.icu_77::Replaceable", %"union.icu_77::UnicodeString::StackBufferOrFields" }
%"class.icu_77::Replaceable" = type { %"class.icu_77::UObject" }
%"union.icu_77::UnicodeString::StackBufferOrFields" = type { %struct.anon.0, [32 x i8] }
%struct.anon.0 = type { i16, i32, i32, ptr }
%struct.UStringSearch = type { ptr, %struct.UPattern, ptr, ptr, ptr, ptr, ptr, i8, i32, i32, i32, i8 }
%struct.UPattern = type { ptr, i32, i32, ptr, [256 x i32], i32, ptr, [256 x i64], i8, i8 }
%struct.USearch = type { ptr, i32, i8, i8, i16, ptr, ptr, i32, i32, i8, i8 }

; Function Attrs: inlinehint mustprogress nounwind uwtable
define internal noundef signext i8 @_ZL9U_FAILURE10UErrorCode(i32 noundef %0) #3 {
  %2 = alloca i32, align 4
  store i32 %0, ptr %2, align 4, !tbaa !17
  %3 = load i32, ptr %2, align 4, !tbaa !17
  %4 = icmp sgt i32 %3, 0
  %5 = zext i1 %4 to i8
  ret i8 %5
}

; Function Attrs: mustprogress uwtable
define noundef i32 @_ZNK6icu_7712StringSearch9getOffsetEv(ptr noundef nonnull align 8 dereferenceable(160) %0) unnamed_addr #1 align 2 {
  %2 = alloca ptr, align 8
  store ptr %0, ptr %2, align 8, !tbaa !3
  %3 = load ptr, ptr %2, align 8
  %4 = getelementptr inbounds nuw %"class.icu_77::StringSearch", ptr %3, i32 0, i32 2
  %5 = load ptr, ptr %4, align 8, !tbaa !19
  %6 = call i32 @usearch_getOffset_77(ptr noundef %5)
  ret i32 %6
}

; Function Attrs: inlinehint mustprogress nounwind uwtable
define internal noundef signext i8 @_ZL9U_SUCCESS10UErrorCode(i32 noundef %0) #3 {
  %2 = alloca i32, align 4
  store i32 %0, ptr %2, align 4, !tbaa !17
  %3 = load i32, ptr %2, align 4, !tbaa !17
  %4 = icmp sle i32 %3, 0
  %5 = zext i1 %4 to i8
  ret i8 %5
}

; Function Attrs: mustprogress uwtable
define noundef i32 @_ZN6icu_7712StringSearch10handleNextEiR10UErrorCode(ptr noundef nonnull align 8 dereferenceable(160) %0, i32 noundef %1, ptr noundef nonnull align 4 dereferenceable(4) %2) unnamed_addr #1 align 2 {
  %4 = alloca i32, align 4
  %5 = alloca ptr, align 8
  %6 = alloca i32, align 4
  %7 = alloca ptr, align 8
  store ptr %0, ptr %5, align 8, !tbaa !3
  store i32 %1, ptr %6, align 4, !tbaa !54
  store ptr %2, ptr %7, align 8, !tbaa !14
  %8 = load ptr, ptr %5, align 8
  %9 = load ptr, ptr %7, align 8, !tbaa !14
  %10 = load i32, ptr %9, align 4, !tbaa !17
  %11 = call noundef signext i8 @_ZL9U_SUCCESS10UErrorCode(i32 noundef %10)
  %12 = icmp ne i8 %11, 0
  br i1 %12, label %13, label %137

13:                                               ; preds = %3
  %14 = getelementptr inbounds nuw %"class.icu_77::StringSearch", ptr %8, i32 0, i32 2
  %15 = load ptr, ptr %14, align 8, !tbaa !19
  %16 = getelementptr inbounds nuw %struct.UStringSearch, ptr %15, i32 0, i32 1
  %17 = getelementptr inbounds nuw %struct.UPattern, ptr %16, i32 0, i32 2
  %18 = load i32, ptr %17, align 4, !tbaa !61
  %19 = icmp eq i32 %18, 0
  br i1 %19, label %20, label %65

20:                                               ; preds = %13
  %21 = getelementptr inbounds nuw %"class.icu_77::SearchIterator", ptr %8, i32 0, i32 1
  %22 = load ptr, ptr %21, align 8, !tbaa !27
  %23 = getelementptr inbounds nuw %struct.USearch, ptr %22, i32 0, i32 7
  %24 = load i32, ptr %23, align 8, !tbaa !56
  %25 = icmp eq i32 %24, -1
  br i1 %25, label %26, label %28

26:                                               ; preds = %20
  %27 = call noundef i32 @_ZNK6icu_7712StringSearch9getOffsetEv(ptr noundef nonnull align 8 dereferenceable(160) %8)
  br label %34

28:                                               ; preds = %20
  %29 = getelementptr inbounds nuw %"class.icu_77::SearchIterator", ptr %8, i32 0, i32 1
  %30 = load ptr, ptr %29, align 8, !tbaa !27
  %31 = getelementptr inbounds nuw %struct.USearch, ptr %30, i32 0, i32 7
  %32 = load i32, ptr %31, align 8, !tbaa !56
  %33 = add nsw i32 %32, 1
  br label %34

34:                                               ; preds = %28, %26
  %35 = phi i32 [ %27, %26 ], [ %33, %28 ]
  %36 = getelementptr inbounds nuw %"class.icu_77::SearchIterator", ptr %8, i32 0, i32 1
  %37 = load ptr, ptr %36, align 8, !tbaa !27
  %38 = getelementptr inbounds nuw %struct.USearch, ptr %37, i32 0, i32 7
  store i32 %35, ptr %38, align 8, !tbaa !56
  %39 = getelementptr inbounds nuw %"class.icu_77::SearchIterator", ptr %8, i32 0, i32 1
  %40 = load ptr, ptr %39, align 8, !tbaa !27
  %41 = getelementptr inbounds nuw %struct.USearch, ptr %40, i32 0, i32 8
  store i32 0, ptr %41, align 4, !tbaa !60
  %42 = getelementptr inbounds nuw %"class.icu_77::StringSearch", ptr %8, i32 0, i32 2
  %43 = load ptr, ptr %42, align 8, !tbaa !19
  %44 = getelementptr inbounds nuw %struct.UStringSearch, ptr %43, i32 0, i32 4
  %45 = load ptr, ptr %44, align 8, !tbaa !62
  %46 = getelementptr inbounds nuw %"class.icu_77::SearchIterator", ptr %8, i32 0, i32 1
  %47 = load ptr, ptr %46, align 8, !tbaa !27
  %48 = getelementptr inbounds nuw %struct.USearch, ptr %47, i32 0, i32 7
  %49 = load i32, ptr %48, align 8, !tbaa !56
  %50 = load ptr, ptr %7, align 8, !tbaa !14
  call void @ucol_setOffset_77(ptr noundef %45, i32 noundef %49, ptr noundef %50)
  %51 = getelementptr inbounds nuw %"class.icu_77::SearchIterator", ptr %8, i32 0, i32 1
  %52 = load ptr, ptr %51, align 8, !tbaa !27
  %53 = getelementptr inbounds nuw %struct.USearch, ptr %52, i32 0, i32 7
  %54 = load i32, ptr %53, align 8, !tbaa !56
  %55 = getelementptr inbounds nuw %"class.icu_77::SearchIterator", ptr %8, i32 0, i32 1
  %56 = load ptr, ptr %55, align 8, !tbaa !27
  %57 = getelementptr inbounds nuw %struct.USearch, ptr %56, i32 0, i32 1
  %58 = load i32, ptr %57, align 8, !tbaa !63
  %59 = icmp eq i32 %54, %58
  br i1 %59, label %60, label %64

60:                                               ; preds = %34
  %61 = getelementptr inbounds nuw %"class.icu_77::SearchIterator", ptr %8, i32 0, i32 1
  %62 = load ptr, ptr %61, align 8, !tbaa !27
  %63 = getelementptr inbounds nuw %struct.USearch, ptr %62, i32 0, i32 7
  store i32 -1, ptr %63, align 8, !tbaa !56
  br label %64

64:                                               ; preds = %60, %34
  br label %136

65:                                               ; preds = %13
  %66 = getelementptr inbounds nuw %"class.icu_77::SearchIterator", ptr %8, i32 0, i32 1
  %67 = load ptr, ptr %66, align 8, !tbaa !27
  %68 = getelementptr inbounds nuw %struct.USearch, ptr %67, i32 0, i32 8
  %69 = load i32, ptr %68, align 4, !tbaa !60
  %70 = icmp sle i32 %69, 0
  br i1 %70, label %71, label %77

71:                                               ; preds = %65
  %72 = load i32, ptr %6, align 4, !tbaa !54
  %73 = sub nsw i32 %72, 1
  %74 = getelementptr inbounds nuw %"class.icu_77::SearchIterator", ptr %8, i32 0, i32 1
  %75 = load ptr, ptr %74, align 8, !tbaa !27
  %76 = getelementptr inbounds nuw %struct.USearch, ptr %75, i32 0, i32 7
  store i32 %73, ptr %76, align 8, !tbaa !56
  br label %77

77:                                               ; preds = %71, %65
  %78 = getelementptr inbounds nuw %"class.icu_77::StringSearch", ptr %8, i32 0, i32 2
  %79 = load ptr, ptr %78, align 8, !tbaa !19
  %80 = getelementptr inbounds nuw %struct.UStringSearch, ptr %79, i32 0, i32 4
  %81 = load ptr, ptr %80, align 8, !tbaa !62
  %82 = load i32, ptr %6, align 4, !tbaa !54
  %83 = load ptr, ptr %7, align 8, !tbaa !14
  call void @ucol_setOffset_77(ptr noundef %81, i32 noundef %82, ptr noundef %83)
  %84 = getelementptr inbounds nuw %"class.icu_77::SearchIterator", ptr %8, i32 0, i32 1
  %85 = load ptr, ptr %84, align 8, !tbaa !27
  %86 = getelementptr inbounds nuw %struct.USearch, ptr %85, i32 0, i32 3
  %87 = load i8, ptr %86, align 1, !tbaa !64
  %88 = icmp ne i8 %87, 0
  br i1 %88, label %89, label %94

89:                                               ; preds = %77
  %90 = getelementptr inbounds nuw %"class.icu_77::StringSearch", ptr %8, i32 0, i32 2
  %91 = load ptr, ptr %90, align 8, !tbaa !19
  %92 = load ptr, ptr %7, align 8, !tbaa !14
  %93 = call signext i8 @usearch_handleNextCanonical_77(ptr noundef %91, ptr noundef %92)
  br label %99

94:                                               ; preds = %77
  %95 = getelementptr inbounds nuw %"class.icu_77::StringSearch", ptr %8, i32 0, i32 2
  %96 = load ptr, ptr %95, align 8, !tbaa !19
  %97 = load ptr, ptr %7, align 8, !tbaa !14
  %98 = call signext i8 @usearch_handleNextExact_77(ptr noundef %96, ptr noundef %97)
  br label %99

99:                                               ; preds = %94, %89
  %100 = load ptr, ptr %7, align 8, !tbaa !14
  %101 = load i32, ptr %100, align 4, !tbaa !17
  %102 = call noundef signext i8 @_ZL9U_FAILURE10UErrorCode(i32 noundef %101)
  %103 = icmp ne i8 %102, 0
  br i1 %103, label %104, label %105

104:                                              ; preds = %99
  store i32 -1, ptr %4, align 4
  br label %138

105:                                              ; preds = %99
  %106 = getelementptr inbounds nuw %"class.icu_77::SearchIterator", ptr %8, i32 0, i32 1
  %107 = load ptr, ptr %106, align 8, !tbaa !27
  %108 = getelementptr inbounds nuw %struct.USearch, ptr %107, i32 0, i32 7
  %109 = load i32, ptr %108, align 8, !tbaa !56
  %110 = icmp eq i32 %109, -1
  br i1 %110, label %111, label %121

111:                                              ; preds = %105
  %112 = getelementptr inbounds nuw %"class.icu_77::StringSearch", ptr %8, i32 0, i32 2
  %113 = load ptr, ptr %112, align 8, !tbaa !19
  %114 = getelementptr inbounds nuw %struct.UStringSearch, ptr %113, i32 0, i32 4
  %115 = load ptr, ptr %114, align 8, !tbaa !62
  %116 = getelementptr inbounds nuw %"class.icu_77::SearchIterator", ptr %8, i32 0, i32 1
  %117 = load ptr, ptr %116, align 8, !tbaa !27
  %118 = getelementptr inbounds nuw %struct.USearch, ptr %117, i32 0, i32 1
  %119 = load i32, ptr %118, align 8, !tbaa !63
  %120 = load ptr, ptr %7, align 8, !tbaa !14
  call void @ucol_setOffset_77(ptr noundef %115, i32 noundef %119, ptr noundef %120)
  br label %131

121:                                              ; preds = %105
  %122 = getelementptr inbounds nuw %"class.icu_77::StringSearch", ptr %8, i32 0, i32 2
  %123 = load ptr, ptr %122, align 8, !tbaa !19
  %124 = getelementptr inbounds nuw %struct.UStringSearch, ptr %123, i32 0, i32 4
  %125 = load ptr, ptr %124, align 8, !tbaa !62
  %126 = getelementptr inbounds nuw %"class.icu_77::SearchIterator", ptr %8, i32 0, i32 1
  %127 = load ptr, ptr %126, align 8, !tbaa !27
  %128 = getelementptr inbounds nuw %struct.USearch, ptr %127, i32 0, i32 7
  %129 = load i32, ptr %128, align 8, !tbaa !56
  %130 = load ptr, ptr %7, align 8, !tbaa !14
  call void @ucol_setOffset_77(ptr noundef %125, i32 noundef %129, ptr noundef %130)
  br label %131

131:                                              ; preds = %121, %111
  %132 = getelementptr inbounds nuw %"class.icu_77::SearchIterator", ptr %8, i32 0, i32 1
  %133 = load ptr, ptr %132, align 8, !tbaa !27
  %134 = getelementptr inbounds nuw %struct.USearch, ptr %133, i32 0, i32 7
  %135 = load i32, ptr %134, align 8, !tbaa !56
  store i32 %135, ptr %4, align 4
  br label %138

136:                                              ; preds = %64
  br label %137

137:                                              ; preds = %136, %3
  store i32 -1, ptr %4, align 4
  br label %138

138:                                              ; preds = %137, %131, %104
  %139 = load i32, ptr %4, align 4
  ret i32 %139
}