; Function Attrs: mustprogress uwtable
define noundef i32 @_ZN6icu_7712StringSearch10handleNextEiR10UErrorCode(ptr noundef nonnull readonly align 8 captures(none) dereferenceable(160) %0, i32 noundef %1, ptr noundef nonnull align 4 dereferenceable(4) %2) unnamed_addr #1 align 2 {
  %4 = load i32, ptr %2, align 4, !tbaa !6
  %5 = icmp sgt i32 %4, 0
  br i1 %5, label %73, label %6

6:                                                ; preds = %3
  %7 = getelementptr inbounds nuw i8, ptr %0, i64 152
  %8 = load ptr, ptr %7, align 8, !tbaa !9
  %9 = getelementptr inbounds nuw i8, ptr %8, i64 20
  %10 = load i32, ptr %9, align 4, !tbaa !43
  %11 = icmp eq i32 %10, 0
  %12 = getelementptr inbounds nuw i8, ptr %0, i64 8
  %13 = load ptr, ptr %12, align 8, !tbaa !24
  br i1 %11, label %14, label %37

14:                                               ; preds = %6
  %15 = getelementptr inbounds nuw i8, ptr %13, i64 32
  %16 = load i32, ptr %15, align 8, !tbaa !38
  %17 = icmp eq i32 %16, -1
  br i1 %17, label %18, label %20

18:                                               ; preds = %14
  %19 = tail call noundef i32 @usearch_getOffset_77(ptr noundef nonnull %8)
  %.pre = load ptr, ptr %12, align 8, !tbaa !24
  %.pre15 = load ptr, ptr %7, align 8, !tbaa !9
  br label %22

20:                                               ; preds = %14
  %21 = add nuw nsw i32 %16, 1
  br label %22

22:                                               ; preds = %20, %18
  %23 = phi ptr [ %.pre15, %18 ], [ %8, %20 ]
  %24 = phi ptr [ %.pre, %18 ], [ %13, %20 ]
  %25 = phi i32 [ %19, %18 ], [ %21, %20 ]
  %26 = getelementptr inbounds nuw i8, ptr %24, i64 32
  store i32 %25, ptr %26, align 8, !tbaa !38
  %27 = getelementptr inbounds nuw i8, ptr %24, i64 36
  store i32 0, ptr %27, align 4, !tbaa !42
  %28 = getelementptr inbounds nuw i8, ptr %23, i64 3144
  %29 = load ptr, ptr %28, align 8, !tbaa !44
  tail call void @ucol_setOffset_77(ptr noundef %29, i32 noundef %25, ptr noundef nonnull %2)
  %30 = load ptr, ptr %12, align 8, !tbaa !24
  %31 = getelementptr inbounds nuw i8, ptr %30, i64 32
  %32 = load i32, ptr %31, align 8, !tbaa !38
  %33 = getelementptr inbounds nuw i8, ptr %30, i64 8
  %34 = load i32, ptr %33, align 8, !tbaa !45
  %35 = icmp eq i32 %32, %34
  br i1 %35, label %36, label %73

36:                                               ; preds = %22
  store i32 -1, ptr %31, align 8, !tbaa !38
  br label %73

37:                                               ; preds = %6
  %38 = getelementptr inbounds nuw i8, ptr %13, i64 36
  %39 = load i32, ptr %38, align 4, !tbaa !42
  %40 = icmp slt i32 %39, 1
  br i1 %40, label %41, label %44

41:                                               ; preds = %37
  %42 = add nsw i32 %1, -1
  %43 = getelementptr inbounds nuw i8, ptr %13, i64 32
  store i32 %42, ptr %43, align 8, !tbaa !38
  br label %44

44:                                               ; preds = %41, %37
  %45 = getelementptr inbounds nuw i8, ptr %8, i64 3144
  %46 = load ptr, ptr %45, align 8, !tbaa !44
  tail call void @ucol_setOffset_77(ptr noundef %46, i32 noundef %1, ptr noundef nonnull %2)
  %47 = load ptr, ptr %12, align 8, !tbaa !24
  %48 = getelementptr inbounds nuw i8, ptr %47, i64 13
  %49 = load i8, ptr %48, align 1, !tbaa !46
  %.not13 = icmp eq i8 %49, 0
  %50 = load ptr, ptr %7, align 8, !tbaa !9
  br i1 %.not13, label %53, label %51

51:                                               ; preds = %44
  %52 = tail call signext i8 @usearch_handleNextCanonical_77(ptr noundef %50, ptr noundef nonnull %2)
  br label %55

53:                                               ; preds = %44
  %54 = tail call signext i8 @usearch_handleNextExact_77(ptr noundef %50, ptr noundef nonnull %2)
  br label %55

55:                                               ; preds = %53, %51
  %56 = load i32, ptr %2, align 4, !tbaa !6
  %57 = icmp slt i32 %56, 1
  br i1 %57, label %58, label %73

58:                                               ; preds = %55
  %59 = load ptr, ptr %12, align 8, !tbaa !24
  %60 = getelementptr inbounds nuw i8, ptr %59, i64 32
  %61 = load i32, ptr %60, align 8, !tbaa !38
  %62 = icmp eq i32 %61, -1
  %63 = load ptr, ptr %7, align 8, !tbaa !9
  %64 = getelementptr inbounds nuw i8, ptr %63, i64 3144
  %65 = load ptr, ptr %64, align 8, !tbaa !44
  br i1 %62, label %66, label %69

66:                                               ; preds = %58
  %67 = getelementptr inbounds nuw i8, ptr %59, i64 8
  %68 = load i32, ptr %67, align 8, !tbaa !45
  br label %69

69:                                               ; preds = %58, %66
  %.sink = phi i32 [ %68, %66 ], [ %61, %58 ]
  tail call void @ucol_setOffset_77(ptr noundef %65, i32 noundef %.sink, ptr noundef nonnull %2)
  %70 = load ptr, ptr %12, align 8, !tbaa !24
  %71 = getelementptr inbounds nuw i8, ptr %70, i64 32
  %72 = load i32, ptr %71, align 8, !tbaa !38
  br label %73

73:                                               ; preds = %3, %22, %36, %55, %69
  %.0 = phi i32 [ %72, %69 ], [ -1, %55 ], [ -1, %36 ], [ -1, %22 ], [ -1, %3 ]
  ret i32 %.0
}